; Function Attrs: mustprogress uwtable
define noundef nonnull align 8 dereferenceable(8) ptr @_ZN10open_spiellsERSoNS_8GameType11InformationE(ptr noundef nonnull align 8 dereferenceable(8) %0, i32 noundef %1) local_unnamed_addr #3 personality ptr @__gxx_personality_v0 {
  %3 = alloca %"class.std::__cxx11::basic_string", align 8
  %4 = alloca %"class.std::allocator.2", align 1
  %5 = icmp ult i32 %1, 3
  br i1 %5, label %switch.lookup, label %6

6:                                                ; preds = %2
  call void @_ZNSaIcEC1Ev(ptr noundef nonnull align 1 dereferenceable(1) %4) #28
  invoke void @_ZNSt7__cxx1112basic_stringIcSt11char_traitsIcESaIcEEC2IS3_EEPKcRKS3_(ptr noundef nonnull align 8 dereferenceable(32) %3, ptr noundef nonnull @.str.89, ptr noundef nonnull align 1 dereferenceable(1) %4)
          to label %7 unwind label %9

7:                                                ; preds = %6
  invoke void @_ZN10open_spiel15SpielFatalErrorERKNSt7__cxx1112basic_stringIcSt11char_traitsIcESaIcEEE(ptr noundef nonnull align 8 dereferenceable(32) %3) #29
          to label %8 unwind label %11

8:                                                ; preds = %7
  unreachable

9:                                                ; preds = %6
  %10 = landingpad { ptr, i32 }
          cleanup
  br label %13

11:                                               ; preds = %7
  %12 = landingpad { ptr, i32 }
          cleanup
  call void @_ZNSt7__cxx1112basic_stringIcSt11char_traitsIcESaIcEED1Ev(ptr noundef nonnull align 8 dereferenceable(32) %3) #28
  br label %13

13:                                               ; preds = %11, %9
  %.pn = phi { ptr, i32 } [ %12, %11 ], [ %10, %9 ]
  call void @_ZNSaIcED1Ev(ptr noundef nonnull align 1 dereferenceable(1) %4) #28
  resume { ptr, i32 } %.pn

switch.lookup:                                    ; preds = %2
  %14 = zext nneg i32 %1 to i64
  %switch.gep = getelementptr inbounds nuw [3 x ptr], ptr @switch.table._ZN10open_spiel8internal11SpielStrOutINSt7__cxx1119basic_ostringstreamIcSt11char_traitsIcESaIcEEENS_8GameType11InformationEEEvRT_RKT0_, i64 0, i64 %14
  %switch.load = load ptr, ptr %switch.gep, align 8
  %15 = tail call noundef nonnull align 8 dereferenceable(8) ptr @_ZStlsISt11char_traitsIcEERSt13basic_ostreamIcT_ES5_PKc(ptr noundef nonnull align 8 dereferenceable(8) %0, ptr noundef nonnull %switch.load)
  ret ptr %15
}